(dp1
S'output'
p2
S'<class \'sqlite3.OperationalError\'> near "contains": syntax error'
p3
sS'layer'
p4
S'/home/ebratt/PycharmProjects/csc503/web2py/applications/csc503/controllers/simulation.py'
p5
sS'code'
p6
S'# -*- coding: utf-8 -*-\nfrom gluon.storage import Storage\n\nresponse.files.append(URL(\'static\', \'css/prettify.css\'))\nresponse.files.append(URL(\'static\', \'js/prettify.js\'))\n\n@auth.requires_login()\ndef index():\n    docs = Storage()\n    docs.simulation = """\n#### Select an algorithm and the input data. psim2web2py will submit a task to the web2py Scheduler. For example,\n``\nscheduler.queue_task(floating_point_add, task_name=\'floating_point_add\')\n``:python\n\nInstructions:\n - Select the **Algorithm**\n - Select the **Input Data** (must be compatible with the algorithm)\n - Hit **Submit** (this will persist the data to the db)\n - Hit **Calculate** (this queues a task for the scheduler)\n - You will be re-directed to the Monitor and can view the status of the task\n - Wait a few seconds or hit Auto-Refresh\n\nWhat you should see in the monitoring dashboard:\n - One worker is **ACTIVE**\n - One scheduler_task gets **QUEUED**, goes into **ASSIGNED**, then **RUNNING**, and then becomes **COMPLETED**\n - When the task is **RUNNING**, a scheduler_run record pops up (**RUNNING**)\n - When the task is **COMPLETED**, the scheduler_run record is updated to show a **COMPLETED** or **FAILED** or\n   **TIMEOUT** status (the default timeout is 60 seconds).\n    """\n\n    form = SQLFORM(db.simulation, fields=[\'algorithm\', \'input_data\'])\n    simulation_id = None\n    algorithm_id = None\n    algorithm = None\n    if form.process(keepvalues=True).accepted:\n        simulation_id = form.vars.id\n        algorithm_id = int(form.vars.algorithm)\n        valid_input = db.executesql(\'SELECT input_value FROM input_data WHERE algorithms contains %d;\' % algorithm_id)\n        valid_input = [x for (x, ) in valid_input]\n        db.simulation.input_data.requires=IS_IN_SET(valid_input)\n        algorithm = db(db.algorithm.id==algorithm_id).select()[0].Name\n        response.flash = \'form accepted\'\n    elif form.errors:\n        response.flash = \'form has errors\'\n    else:\n        response.flash = \'please fill out the form\'\n\n    return dict(docs=docs, form=form, simulation_id=simulation_id, algorithm=algorithm)\n\n\nresponse._vars=response._caller(index)\n'
p7
sS'snapshot'
p8
(dp9
sS'traceback'
p10
S'Traceback (most recent call last):\n  File "/home/ebratt/PycharmProjects/csc503/web2py/gluon/restricted.py", line 224, in restricted\n    exec ccode in environment\n  File "/home/ebratt/PycharmProjects/csc503/web2py/applications/csc503/controllers/simulation.py", line 52, in <module>\n  File "/home/ebratt/PycharmProjects/csc503/web2py/gluon/globals.py", line 393, in <lambda>\n    self._caller = lambda f: f()\n  File "/home/ebratt/PycharmProjects/csc503/web2py/gluon/tools.py", line 3444, in f\n    return action(*a, **b)\n  File "/home/ebratt/PycharmProjects/csc503/web2py/applications/csc503/controllers/simulation.py", line 39, in index\n    valid_input = db.executesql(\'SELECT input_value FROM input_data WHERE algorithms contains %d;\' % algorithm_id)\n  File "/home/ebratt/PycharmProjects/csc503/web2py/gluon/dal/base.py", line 992, in executesql\n    adapter.execute(query)\n  File "/home/ebratt/PycharmProjects/csc503/web2py/gluon/dal/adapters/base.py", line 1319, in execute\n    return self.log_execute(*a, **b)\n  File "/home/ebratt/PycharmProjects/csc503/web2py/gluon/dal/adapters/base.py", line 1313, in log_execute\n    ret = self.cursor.execute(command, *a[1:], **b)\nOperationalError: near "contains": syntax error\n'
p11
s.