(dp1
S'output'
p2
S"<type 'exceptions.AttributeError'> 'DAL' object has no attribute 'Simulation'"
p3
sS'layer'
p4
S'/home/ebratt/PycharmProjects/csc503/web2py/applications/csc503/controllers/default.py'
p5
sS'code'
p6
S'# -*- coding: utf-8 -*-\n# this file is released under public domain and you can use without limitations\n\n#########################################################################\n## This is a sample controller\n## - index is the default action of any application\n## - user is required for authentication and authorization\n## - download is for downloading files uploaded in the db (does streaming)\n## - api is an example of Hypermedia API support and access control\n#########################################################################\n\nfrom plugin_tablescope import TableScope\nfrom plugin_solidtable import SOLIDTABLE, OrderbySelector\n\n@auth.requires_login()\ndef index():\n    """\n    example action using the internationalization operator T and flash\n    rendered by views/default/index.html or views/generic.html\n\n    if you need a simple wiki simply replace the two lines below with:\n    return auth.wiki()\n    """\n\n    # build the SOLIDTABLE\n    orderby_selector = OrderbySelector([~db.Simulation.Date])\n    # dataset = db(db.Simulation.Owner==auth.user)\n    dataset = db((db.Simulation.id==db.Log.Simulation) & (db.Simulation.id==db.Plot.Simulation) & (db.Simulation.Owner == auth.user))\n    scope = TableScope(dataset, db.Simulation.Algorithm, renderstyle=True)\n    rows = scope.scoped_dataset.select(db.Simulation.Date,\n                                       db.Simulation.Algorithm,\n                                       db.Simulation.Input_Data,\n                                       db.Simulation.Result,\n                                       db.Log.Content,\n                                       db.Plot.Plot,\n                                       orderby=orderby_selector.orderby())\n    headers = {\'Simulation.Date\': {\'selected\': True},\n               \'Simulation.Algorithm\': {\'selected\': False},\n               \'Simulation.Input_Data\': {\'selected\': False},\n               \'Simulation.Result\': {\'selected\': False}\n    }\n    extracolumns = [{\'label\': A(\'Log\', _href=\'#\'),\n                     \'content\': lambda row, rc: A(\'Log\', _href=\'download/%s\' % row.Log.Content)},\n                    {\'label\': A(\'Plot\', _href=\'#\'),\n                     \'content\': lambda row, rc: A(\'Plot\', _href=\'download/%s\' % row.Plot.Plot)},\n                    ]\n    columns = [db.Simulation.Date,\n               db.Simulation.Algorithm,\n               db.Simulation.Input_Data,\n               db.Simulation.Result, extracolumns[0]]\n    table = SOLIDTABLE(rows,\n                       columns=columns,\n                       extracolumns=extracolumns,\n                       headers=headers,\n                       orderby=orderby_selector,\n                       renderstyle=True)\n    return dict(sample_1=dict(table=table, scope=scope))\n\n\ndef user():\n    """\n    exposes:\n    http://..../[app]/default/user/login\n    http://..../[app]/default/user/logout\n    http://..../[app]/default/user/register\n    http://..../[app]/default/user/profile\n    http://..../[app]/default/user/retrieve_password\n    http://..../[app]/default/user/change_password\n    http://..../[app]/default/user/manage_users (requires membership in\n    use @auth.requires_login()\n        @auth.requires_membership(\'group name\')\n        @auth.requires_permission(\'read\',\'table name\',record_id)\n    to decorate functions that need access control\n    """\n    return dict(form=auth())\n\n\n@cache.action()\ndef download():\n    """\n    allows downloading of uploaded files\n    http://..../[app]/default/download/[filename]\n    """\n    return response.download(request, db)\n\n\ndef call():\n    """\n    exposes services. for example:\n    http://..../[app]/default/call/jsonrpc\n    decorate with @services.jsonrpc the functions to expose\n    supports xml, json, xmlrpc, jsonrpc, amfrpc, rss, csv\n    """\n    return service()\n\n\n@auth.requires_login() \ndef api():\n    """\n    this is example of API with access control\n    WEB2PY provides Hypermedia API (Collection+JSON) Experimental\n    """\n    from gluon.contrib.hypermedia import Collection\n    rules = {\n        \'<tablename>\': {\'GET\':{},\'POST\':{},\'PUT\':{},\'DELETE\':{}},\n        }\n    return Collection(db).process(request,response,rules)\n\nresponse._vars=response._caller(index)\n'
p7
sS'snapshot'
p8
(dp9
sS'traceback'
p10
S'Traceback (most recent call last):\n  File "/home/ebratt/PycharmProjects/csc503/web2py/gluon/restricted.py", line 224, in restricted\n    exec ccode in environment\n  File "/home/ebratt/PycharmProjects/csc503/web2py/applications/csc503/controllers/default.py", line 109, in <module>\n  File "/home/ebratt/PycharmProjects/csc503/web2py/gluon/globals.py", line 393, in <lambda>\n    self._caller = lambda f: f()\n  File "/home/ebratt/PycharmProjects/csc503/web2py/gluon/tools.py", line 3444, in f\n    return action(*a, **b)\n  File "/home/ebratt/PycharmProjects/csc503/web2py/applications/csc503/controllers/default.py", line 26, in index\n    orderby_selector = OrderbySelector([~db.Simulation.Date])\n  File "/home/ebratt/PycharmProjects/csc503/web2py/gluon/dal/base.py", line 893, in __getattr__\n    return ogetattr(self, key)\nAttributeError: \'DAL\' object has no attribute \'Simulation\'\n'
p11
s.