(dp1
S'output'
p2
S"<type 'exceptions.KeyError'> 'profile'"
p3
sS'layer'
p4
S'/home/ebratt/PycharmProjects/csc503/web2py/applications/csc503/views/default/user.html'
p5
sS'code'
p6
S'response.write(\'<!DOCTYPE html>\\n<html class="no-js" lang="\', escape=False)\nresponse.write(T.accepted_language or \'en\')\nresponse.write(\'">\\n  <head>\\n    <title>\', escape=False)\nresponse.write(response.title or request.application)\nresponse.write(\'</title>\\n    <meta charset="utf-8">\\n    <meta http-equiv="X-UA-Compatible" content="IE=edge">\\n    <meta name="viewport" content="width=device-width, initial-scale=1">\\n    <meta name="application-name" content="\', escape=False)\nresponse.write(request.application)\nresponse.write(\'" />\\n    <meta name="description" content="">\\n    <meta name="author" content="">\\n    <link rel="shortcut icon" href="\', escape=False)\nresponse.write(URL(\'static\',\'images/favicon.ico\'))\nresponse.write(\'" type="image/x-icon">\\n    <link rel="apple-touch-icon" href="\', escape=False)\nresponse.write(URL(\'static\',\'images/favicon.png\'))\nresponse.write(\'">\\n    \', escape=False)\nresponse.files.append(URL(\'static\',\'css/web2py.css\'))\nresponse.files.append(URL(\'static\',\'plugin_cs_monitor/css/bootstrap.min.css\'))\nresponse.files.append(URL(\'static\',\'plugin_cs_monitor/css/layout.css\'))\nresponse.files.append(URL(\'static\',\'plugin_cs_monitor/js/bootstrap.min.js\'))\nresponse.files.append(URL(\'static\',\'plugin_cs_monitor/js/ie10-viewport-bug-workaround.js\'))\nresponse.write(\'\\n    \', escape=False)\nresponse.write(\'<script type="text/javascript"><!--\\n    // These variables are used by the web2py_ajax_init function in web2py_ajax.js (which is loaded below).\\n    var w2p_ajax_confirm_message = "\', escape=False)\nresponse.write(T(\'Are you sure you want to delete this object?\'))\nresponse.write(\'";\\n    var w2p_ajax_disable_with_message = "\', escape=False)\nresponse.write(T(\'Working...\'))\nresponse.write(\'";\\n    var w2p_ajax_date_format = "\', escape=False)\nresponse.write(T(\'%Y-%m-%d\'))\nresponse.write(\'";\\n    var w2p_ajax_datetime_format = "\', escape=False)\nresponse.write(T(\'%Y-%m-%d %H:%M:%S\'))\nresponse.write(\'";\\n    var ajax_error_500 = \\\'\', escape=False)\nresponse.write(T.M(\'An error occured, please [[reload %s]] the page\') % URL(args=request.args, vars=request.get_vars))\nresponse.write("\'\\n    //--></script>\\n", escape=False)\nresponse.files.insert(0,URL(\'static\',\'js/jquery.js\'))\nresponse.files.insert(1,URL(\'static\',\'css/calendar.css\'))\nresponse.files.insert(2,URL(\'static\',\'js/calendar.js\'))\nresponse.files.insert(3,URL(\'static\',\'js/web2py.js\'))\nresponse.include_meta()\nresponse.include_files()\nresponse.write(\'\\n\', escape=False)\nresponse.write(\'\\n\\n    <!-- HTML5 shim and Respond.js IE8 support of HTML5 elements and media queries -->\\n    <!--[if lt IE 9]>\\n      <script src="\', escape=False)\nresponse.write(URL(\'static\',\'plugin_cs_monitor/js/respond.min.js\'))\nresponse.write(\'"></script>\\n      <script src="\', escape=False)\nresponse.write(URL(\'static\',\'plugin_cs_monitor/css/html5shiv.min.js\'))\nresponse.write(\'"></script>\\n    <![endif]-->\\n  </head>\\n\\n  <body>\\n\\n    <div class="navbar navbar-inverse navbar-fixed-top" role="navigation">\\n      <div class="container-fluid">\\n        <div class="navbar-header">\\n          <button type="button" class="navbar-toggle collapsed" data-toggle="collapse" data-target=".navbar-collapse">\\n            <span class="sr-only">Toggle navigation</span>\\n            <span class="icon-bar"></span>\\n            <span class="icon-bar"></span>\\n            <span class="icon-bar"></span>\\n          </button>\\n          <a class="navbar-brand" href="#">psim2web2py</a>\\n        </div>\\n        <div class="navbar-collapse collapse">\\n          <ul class="nav navbar-nav">\\n          \', escape=False)\nif response.menu:\n    response.write(\'\\n            \', escape=False)\n    for mainitem in response.menu:\n        response.write(\'\\n              \', escape=False)\n        if len(mainitem) == 4 and mainitem[3]:\n            response.write(\'\\n                \', escape=False)\n            response.write(LI(\n            A(mainitem[0], SPAN(_class="caret"), _href="#", _class="dropdown-toggle", data=dict(toggle="dropdown")),\n            UL(\n            [LI(A(subitem[0], _href=subitem[2])) for subitem in mainitem[3]],\n            _class="dropdown-menu", _role="menu"),\n            _class="dropdown"))\n            response.write(\'\\n              \', escape=False)\n        else:\n            response.write(\'\\n                \', escape=False)\n            response.write(LI(A(mainitem[0], _href=mainitem[2])))\n            response.write(\'\\n              \', escape=False)\n            pass\n        response.write(\'\\n            \', escape=False)\n        pass\n    response.write(\'\\n          \', escape=False)\n    pass\nresponse.write(\'\\n          </ul>\\n          <ul class="nav navbar-nav navbar-right">\\n            \', escape=False)\nmymenu = \'auth\' in globals() and auth.navbar(mode="bare") or []\nresponse.write(\'\\n            \', escape=False)\nif \'user\' in mymenu:\n    response.write(\'\\n              \', escape=False)\n    response.write(LI(\n    A("%(user)s" % mymenu, SPAN(_class="caret"), _href="#", _class="dropdown-toggle", data=dict(toggle="dropdown")),\n    UL(\n    LI(A(\'Profile\', _href=mymenu[\'profile\'], _rel="nofollow")),\n    LI(A(\'Change PWD\', _href=mymenu[\'change_password\'], _rel="nofollow")),\n    LI(A(\'Logout\', _href=mymenu[\'logout\'], _rel="nofollow")),\n    _class="dropdown-menu", _role="menu"),\n    _class="dropdown"))\n    response.write(\'\\n            \', escape=False)\nelse:\n    response.write(\'\\n              \', escape=False)\n    response.write(LI(A(\'Login\', _href=mymenu[\'login\'], _rel="nofollow")))\n    response.write(\'\\n              \', escape=False)\n    response.write(LI(A(\'Signup\', _href=mymenu[\'register\'], _rel="nofollow")))\n    response.write(\'\\n            \', escape=False)\n    pass\nresponse.write(\'\\n          </ul>\\n        </div>\\n      </div>\\n    </div>\\n\\n    <div class="container-fluid">\\n      <div class="row">\\n        <div class="col-sm-3 col-md-2 sidebar">\\n          <ul class="nav nav-sidebar">\\n            <li class="active"><a href="#">Overview</a></li>\\n            <li><a href="#">Reports</a></li>\\n            <li><a href="#">Analytics</a></li>\\n            <li><a href="#">Export</a></li>\\n          </ul>\\n          <ul class="nav nav-sidebar">\\n            <li><a href="">Nav item</a></li>\\n            <li><a href="">Nav item again</a></li>\\n            <li><a href="">One more nav</a></li>\\n            <li><a href="">Another nav item</a></li>\\n            <li><a href="">More navigation</a></li>\\n          </ul>\\n        </div>\\n      </div>\\n      <div class="col-sm-9 col-sm-offset-3 col-md-10 col-md-offset-2 main">\\n        <div class="col-md-12 main">\\n            <div class="flashbs3 alert alert-info alert-dismissible" role="alert">\\n              <span class="flashcont">\', escape=False)\nresponse.write(response.flash or \'\')\nresponse.write(\'</span>\\n            </div>\\n        \', escape=False)\nresponse.write(\'\\n              \', escape=False)\nresponse.write(\'\\n\', escape=False)\nresponse.write(\'\\n\\n\\n<h2>\', escape=False)\nresponse.write(T( request.args(0).replace(\'_\',\' \').capitalize() ))\nresponse.write(\'</h2>\\n<div id="web2py_user_form">\\n\', escape=False)\nif request.args(0)==\'login\' and not session.auth_2_factor_user:\n    if not \'register\' in auth.settings.actions_disabled:\n        form.add_button(T(\'Register\'),URL(args=\'register\', vars={\'_next\': request.vars._next} if request.vars._next else None),_class=\'btn\')\n        pass\n    if not \'request_reset_password\' in auth.settings.actions_disabled:\n        form.add_button(T(\'Lost Password\'),URL(args=\'request_reset_password\'),_class=\'btn\')\n        pass\n    pass\nresponse.write(form)\nresponse.write(\'\\n</div>\\n<script language="javascript"><!--\\njQuery("#web2py_user_form input:visible:enabled:first").focus();\\n\', escape=False)\nif request.args(0)==\'register\':\n    response.write("\\n    web2py_validate_entropy(jQuery(\'#auth_user_password\'),100);\\n", escape=False)\nelif request.args(0) in (\'change_password\',\'reset_password\'):\n    response.write("\\n    web2py_validate_entropy(jQuery(\'#no_table_new_password\'),100);\\n", escape=False)\n    pass\nresponse.write(\'\\n//--></script>\\n\\n\', escape=False)\nresponse.write(\'\\n        \', escape=False)\nresponse.write(\'\\n            <!-- Footer ================================================== -->\\n            <div class="row">\\n                <footer class="footer span12" id="footer">\\n                    <div class="footer-content">\\n                        \', escape=False)\nresponse.write(\' <!-- this is default footer -->\\n                        <div class="copyright pull-left">\', escape=False)\nresponse.write(T(\'Copyright\'))\nresponse.write(\' &#169; 2015</div>\\n                        <div id="poweredBy" class="pull-right">\\n                            \', escape=False)\nresponse.write(T(\'Powered by\'))\nresponse.write(\'\\n                            <a href="http://www.web2py.com/">web2py</a>\\n                        </div>\\n                        \', escape=False)\nresponse.write(\'\\n                    </div>\\n                </footer>\\n              </div>\\n        </div>\\n      </div>\\n    </div>\\n\\n    <script type="text/javascript">\\n      $(document).ready(function () {\\n        //select active link in menu by default\\n        $(\\\'a[href="\\\' + this.location.pathname + \\\'"]\\\').parent().addClass(\\\'active\\\');\\n    });\\n    </script>\\n  </body>\\n</html>\\n\', escape=False)'
p7
sS'snapshot'
p8
(dp9
sS'traceback'
p10
S'Traceback (most recent call last):\n  File "/home/ebratt/PycharmProjects/csc503/web2py/gluon/restricted.py", line 224, in restricted\n    exec ccode in environment\n  File "/home/ebratt/PycharmProjects/csc503/web2py/applications/csc503/views/default/user.html", line 71, in <module>\nKeyError: \'profile\'\n'
p11
s.